target datalayout = "e-m:e-p270:32:32-p271:32:32-p272:64:64-i64:64-i128:128-f80:128-n8:16:32:64-S128"
target triple = "x86_64-pc-linux-gnu"

%struct.lua_State = type { %struct.GCRef, i8, i8, i8, i8, %struct.MRef, %struct.GCRef, ptr, ptr, %struct.MRef, %struct.MRef, %struct.GCRef, %struct.GCRef, ptr, i32 }
%struct.MRef = type { i64 }
%struct.GCRef = type { i64 }
%union.TValue = type { i64 }

; Function Attrs: nounwind uwtable
define internal i32 @lj_cf_string_gmatch(ptr noundef %0) #0 {
  %2 = alloca ptr, align 8
  store ptr %0, ptr %2, align 8, !tbaa !4
  %3 = load ptr, ptr %2, align 8, !tbaa !4
  %4 = call ptr @lj_lib_checkstr(ptr noundef %3, i32 noundef 1)
  %5 = load ptr, ptr %2, align 8, !tbaa !4
  %6 = call ptr @lj_lib_checkstr(ptr noundef %5, i32 noundef 2)
  %7 = load ptr, ptr %2, align 8, !tbaa !4
  %8 = getelementptr inbounds nuw %struct.lua_State, ptr %7, i32 0, i32 7
  %9 = load ptr, ptr %8, align 8, !tbaa !33
  %10 = getelementptr inbounds %union.TValue, ptr %9, i64 3
  %11 = load ptr, ptr %2, align 8, !tbaa !4
  %12 = getelementptr inbounds nuw %struct.lua_State, ptr %11, i32 0, i32 8
  store ptr %10, ptr %12, align 8, !tbaa !21
  %13 = load ptr, ptr %2, align 8, !tbaa !4
  %14 = getelementptr inbounds nuw %struct.lua_State, ptr %13, i32 0, i32 8
  %15 = load ptr, ptr %14, align 8, !tbaa !21
  %16 = getelementptr inbounds %union.TValue, ptr %15, i64 -1
  store i64 0, ptr %16, align 8, !tbaa !22
  %17 = load ptr, ptr %2, align 8, !tbaa !4
  %18 = call ptr @lj_lib_pushcc(ptr noundef %17, ptr noundef @lj_cf_string_gmatch_aux, i32 noundef 86, i32 noundef 3)
  ret i32 1
}