; Function Attrs: nounwind uwtable
define internal noundef i32 @lj_cf_string_gmatch(ptr noundef %0) #0 {
  %2 = tail call ptr @lj_lib_checkstr(ptr noundef %0, i32 noundef 1) #7
  %3 = tail call ptr @lj_lib_checkstr(ptr noundef %0, i32 noundef 2) #7
  %4 = getelementptr inbounds nuw i8, ptr %0, i64 32
  %5 = load ptr, ptr %4, align 8, !tbaa !22
  %6 = getelementptr inbounds nuw i8, ptr %5, i64 24
  %7 = getelementptr inbounds nuw i8, ptr %0, i64 40
  store ptr %6, ptr %7, align 8, !tbaa !15
  %8 = getelementptr inbounds nuw i8, ptr %5, i64 16
  store i64 0, ptr %8, align 8, !tbaa !16
  %9 = tail call ptr @lj_lib_pushcc(ptr noundef %0, ptr noundef nonnull @lj_cf_string_gmatch_aux, i32 noundef 86, i32 noundef 3) #7
  ret i32 1
}